(dp0
S'regressor'
p1
ccopy_reg
_reconstructor
p2
(csklearn.linear_model.base
LinearRegression
p3
c__builtin__
object
p4
Ntp5
Rp6
(dp7
S'normalize'
p8
I00
sS'n_jobs'
p9
NsS'fit_intercept'
p10
I01
sS'_residues'
p11
F0.0
sS'coef_'
p12
cnumpy.core.multiarray
_reconstruct
p13
(cnumpy
ndarray
p14
(I0
tp15
S'b'
p16
tp17
Rp18
(I1
(I11
tp19
cnumpy
dtype
p20
(S'f8'
p21
I0
I1
tp22
Rp23
(I3
S'<'
p24
NNNI-1
I-1
I0
tp25
bI00
S'G\x17]t\xd1E\xd7\xbf]t\xd1E\x17]\xe4?]t\xd1E\x17]\xe4?G\x17]t\xd1E\xd7\xbfG\x17]t\xd1E\xd7\xbfG\x17]t\xd1E\xd7\xbfG\x17]t\xd1E\xd7\xbfG\x17]t\xd1E\xd7\xbf]t\xd1E\x17]\xe4?]t\xd1E\x17]\xe4?G\x17]t\xd1E\xd7\xbf'
p26
tp27
bsS'_sklearn_version'
p28
S'0.20.4'
p29
sS'copy_X'
p30
I01
sS'intercept_'
p31
cnumpy.core.multiarray
scalar
p32
(g23
S'F\x17]t\xd1E\xd7?'
p33
tp34
Rp35
sbsS'vectorizer'
p36
g2
(csklearn.feature_extraction.text
CountVectorizer
p37
g4
Ntp38
Rp39
(dp40
S'decode_error'
p41
Vstrict
p42
sS'tokenizer'
p43
NsS'encoding'
p44
Vutf-8
p45
sS'token_pattern'
p46
V(?u)\u005cb\u005cw\u005cw+\u005cb
p47
sS'analyzer'
p48
Vword
p49
sS'ngram_range'
p50
(I1
I1
tp51
sS'preprocessor'
p52
NsS'min_df'
p53
I1
sS'max_features'
p54
NsS'fixed_vocabulary_'
p55
I00
sS'_stop_words_id'
p56
I9392928
sS'stop_words_'
p57
c__builtin__
set
p58
((lp59
tp60
Rp61
sS'binary'
p62
I00
sS'lowercase'
p63
I01
sS'stop_words'
p64
NsS'vocabulary'
p65
NsS'vocabulary_'
p66
(dp67
Vpika
p68
g32
(g20
(S'i8'
p69
I0
I1
tp70
Rp71
(I3
S'<'
p72
NNNI-1
I-1
I0
tp73
bS'\x05\x00\x00\x00\x00\x00\x00\x00'
p74
tp75
Rp76
sVwoof
p77
g32
(g71
S'\t\x00\x00\x00\x00\x00\x00\x00'
p78
tp79
Rp80
sVroar
p81
g32
(g71
S'\x07\x00\x00\x00\x00\x00\x00\x00'
p82
tp83
Rp84
sVribbit
p85
g32
(g71
S'\x06\x00\x00\x00\x00\x00\x00\x00'
p86
tp87
Rp88
sVruff
p89
g32
(g71
S'\x08\x00\x00\x00\x00\x00\x00\x00'
p90
tp91
Rp92
sVmeow
p93
g32
(g71
S'\x03\x00\x00\x00\x00\x00\x00\x00'
p94
tp95
Rp96
sVbowwow
p97
g32
(g71
S'\x02\x00\x00\x00\x00\x00\x00\x00'
p98
tp99
Rp100
sVmoo
p101
g32
(g71
S'\x04\x00\x00\x00\x00\x00\x00\x00'
p102
tp103
Rp104
sVyip
p105
g32
(g71
S'\n\x00\x00\x00\x00\x00\x00\x00'
p106
tp107
Rp108
sVbark
p109
g32
(g71
S'\x01\x00\x00\x00\x00\x00\x00\x00'
p110
tp111
Rp112
sVbah
p113
g32
(g71
S'\x00\x00\x00\x00\x00\x00\x00\x00'
p114
tp115
Rp116
ssg28
g29
sS'dtype'
p117
cnumpy
int64
p118
sS'input'
p119
Vcontent
p120
sS'strip_accents'
p121
NsS'max_df'
p122
F1.0
sbs.